target datalayout = "e-m:e-p270:32:32-p271:32:32-p272:64:64-i64:64-i128:128-f80:128-n8:16:32:64-S128"
target triple = "x86_64-pc-linux-gnu"

%struct._object = type { %union.anon, ptr }
%union.anon = type { i64 }
%struct.PyVarObject = type { %struct._object, i64 }
%struct._typeobject = type { %struct.PyVarObject, ptr, i64, i64, ptr, i64, ptr, ptr, ptr, ptr, ptr, ptr, ptr, ptr, ptr, ptr, ptr, ptr, ptr, i64, ptr, ptr, ptr, ptr, i64, ptr, ptr, ptr, ptr, ptr, ptr, ptr, ptr, ptr, i64, ptr, ptr, ptr, ptr, ptr, ptr, ptr, ptr, ptr, ptr, ptr, i32, ptr, ptr, i8, i16 }
%struct._abcmodule_state = type { ptr, i64 }
%struct._abc_data = type { %struct._object, ptr, ptr, ptr, i64 }
%struct.PyModuleObject = type { %struct._object, ptr, ptr, ptr, ptr, ptr }
%struct.anon = type { i32, i32 }
%struct._heaptypeobject = type { %struct._typeobject, %struct.PyAsyncMethods, %struct.PyNumberMethods, %struct.PyMappingMethods, %struct.PySequenceMethods, %struct.PyBufferProcs, ptr, ptr, ptr, ptr, ptr, ptr, ptr, %struct._specialization_cache }
%struct.PyAsyncMethods = type { ptr, ptr, ptr, ptr }
%struct.PyNumberMethods = type { ptr, ptr, ptr, ptr, ptr, ptr, ptr, ptr, ptr, ptr, ptr, ptr, ptr, ptr, ptr, ptr, ptr, ptr, ptr, ptr, ptr, ptr, ptr, ptr, ptr, ptr, ptr, ptr, ptr, ptr, ptr, ptr, ptr, ptr, ptr, ptr }
%struct.PyMappingMethods = type { ptr, ptr, ptr }
%struct.PySequenceMethods = type { ptr, ptr, ptr, ptr, ptr, ptr, ptr, ptr, ptr, ptr }
%struct.PyBufferProcs = type { ptr, ptr }
%struct._specialization_cache = type { ptr, i32, ptr }

; Function Attrs: alwaysinline nounwind uwtable
define internal i32 @_Py_IsImmortal(ptr noundef %0) #4 {
  %2 = alloca ptr, align 8
  store ptr %0, ptr %2, align 8, !tbaa !4
  %3 = load ptr, ptr %2, align 8, !tbaa !4
  %4 = getelementptr inbounds nuw %struct._object, ptr %3, i32 0, i32 0
  %5 = getelementptr inbounds nuw %struct.anon, ptr %4, i32 0, i32 0
  %6 = load i32, ptr %5, align 8, !tbaa !46
  %7 = icmp slt i32 %6, 0
  %8 = zext i1 %7 to i32
  ret i32 %8
}

; Function Attrs: inlinehint nounwind uwtable
define internal i64 @get_invalidation_counter(ptr noundef %0) #3 {
  %2 = alloca ptr, align 8
  store ptr %0, ptr %2, align 8, !tbaa !9
  %3 = load ptr, ptr %2, align 8, !tbaa !9
  %4 = getelementptr inbounds nuw %struct._abcmodule_state, ptr %3, i32 0, i32 1
  %5 = load i64, ptr %4, align 8, !tbaa !27
  ret i64 %5
}

; Function Attrs: alwaysinline nounwind uwtable
define internal void @Py_DECREF(ptr noundef %0) #4 {
  %2 = alloca ptr, align 8
  store ptr %0, ptr %2, align 8, !tbaa !4
  %3 = load ptr, ptr %2, align 8, !tbaa !4
  %4 = call i32 @_Py_IsImmortal(ptr noundef %3)
  %5 = icmp ne i32 %4, 0
  br i1 %5, label %6, label %7

6:                                                ; preds = %1
  br label %16

7:                                                ; preds = %1
  %8 = load ptr, ptr %2, align 8, !tbaa !4
  %9 = getelementptr inbounds nuw %struct._object, ptr %8, i32 0, i32 0
  %10 = getelementptr inbounds nuw %struct.anon, ptr %9, i32 0, i32 0
  %11 = load i32, ptr %10, align 8, !tbaa !46
  %12 = add i32 %11, -1
  store i32 %12, ptr %10, align 8, !tbaa !46
  %13 = icmp eq i32 %12, 0
  br i1 %13, label %14, label %16

14:                                               ; preds = %7
  %15 = load ptr, ptr %2, align 8, !tbaa !4
  call void @_Py_Dealloc(ptr noundef %15)
  br label %16

16:                                               ; preds = %6, %14, %7
  ret void
}

; Function Attrs: inlinehint nounwind uwtable
define internal ptr @_PyType_GetModuleState(ptr noundef %0) #3 {
  %2 = alloca ptr, align 8
  %3 = alloca ptr, align 8
  %4 = alloca ptr, align 8
  store ptr %0, ptr %2, align 8, !tbaa !18
  call void @llvm.lifetime.start.p0(i64 8, ptr %3) #5
  %5 = load ptr, ptr %2, align 8, !tbaa !18
  store ptr %5, ptr %3, align 8, !tbaa !50
  call void @llvm.lifetime.start.p0(i64 8, ptr %4) #5
  %6 = load ptr, ptr %3, align 8, !tbaa !50
  %7 = getelementptr inbounds nuw %struct._heaptypeobject, ptr %6, i32 0, i32 10
  %8 = load ptr, ptr %7, align 8, !tbaa !52
  store ptr %8, ptr %4, align 8, !tbaa !9
  %9 = load ptr, ptr %4, align 8, !tbaa !9
  %10 = getelementptr inbounds nuw %struct.PyModuleObject, ptr %9, i32 0, i32 3
  %11 = load ptr, ptr %10, align 8, !tbaa !28
  call void @llvm.lifetime.end.p0(i64 8, ptr %4) #5
  call void @llvm.lifetime.end.p0(i64 8, ptr %3) #5
  ret ptr %11
}

; Function Attrs: nounwind uwtable
define internal ptr @abc_data_new(ptr noundef %0, ptr noundef %1, ptr noundef %2) #0 {
  %4 = alloca ptr, align 8
  %5 = alloca ptr, align 8
  %6 = alloca ptr, align 8
  %7 = alloca ptr, align 8
  %8 = alloca ptr, align 8
  %9 = alloca ptr, align 8
  %10 = alloca i32, align 4
  store ptr %0, ptr %5, align 8, !tbaa !18
  store ptr %1, ptr %6, align 8, !tbaa !4
  store ptr %2, ptr %7, align 8, !tbaa !4
  call void @llvm.lifetime.start.p0(i64 8, ptr %8) #5
  %11 = load ptr, ptr %5, align 8, !tbaa !18
  %12 = getelementptr inbounds nuw %struct._typeobject, ptr %11, i32 0, i32 36
  %13 = load ptr, ptr %12, align 8, !tbaa !38
  %14 = load ptr, ptr %5, align 8, !tbaa !18
  %15 = call ptr %13(ptr noundef %14, i64 noundef 0)
  store ptr %15, ptr %8, align 8, !tbaa !9
  call void @llvm.lifetime.start.p0(i64 8, ptr %9) #5
  store ptr null, ptr %9, align 8, !tbaa !9
  %16 = load ptr, ptr %8, align 8, !tbaa !9
  %17 = icmp eq ptr %16, null
  br i1 %17, label %18, label %19

18:                                               ; preds = %3
  store ptr null, ptr %4, align 8
  store i32 1, ptr %10, align 4
  br label %38

19:                                               ; preds = %3
  %20 = load ptr, ptr %5, align 8, !tbaa !18
  %21 = call ptr @_PyType_GetModuleState(ptr noundef %20)
  store ptr %21, ptr %9, align 8, !tbaa !9
  %22 = load ptr, ptr %9, align 8, !tbaa !9
  %23 = icmp eq ptr %22, null
  br i1 %23, label %24, label %26

24:                                               ; preds = %19
  %25 = load ptr, ptr %8, align 8, !tbaa !9
  call void @Py_DECREF(ptr noundef %25)
  store ptr null, ptr %4, align 8
  store i32 1, ptr %10, align 4
  br label %38

26:                                               ; preds = %19
  %27 = load ptr, ptr %8, align 8, !tbaa !9
  %28 = getelementptr inbounds nuw %struct._abc_data, ptr %27, i32 0, i32 1
  store ptr null, ptr %28, align 8, !tbaa !20
  %29 = load ptr, ptr %8, align 8, !tbaa !9
  %30 = getelementptr inbounds nuw %struct._abc_data, ptr %29, i32 0, i32 2
  store ptr null, ptr %30, align 8, !tbaa !23
  %31 = load ptr, ptr %8, align 8, !tbaa !9
  %32 = getelementptr inbounds nuw %struct._abc_data, ptr %31, i32 0, i32 3
  store ptr null, ptr %32, align 8, !tbaa !24
  %33 = load ptr, ptr %9, align 8, !tbaa !9
  %34 = call i64 @get_invalidation_counter(ptr noundef %33)
  %35 = load ptr, ptr %8, align 8, !tbaa !9
  %36 = getelementptr inbounds nuw %struct._abc_data, ptr %35, i32 0, i32 4
  store i64 %34, ptr %36, align 8, !tbaa !45
  %37 = load ptr, ptr %8, align 8, !tbaa !9
  store ptr %37, ptr %4, align 8
  store i32 1, ptr %10, align 4
  br label %38

38:                                               ; preds = %26, %24, %18
  call void @llvm.lifetime.end.p0(i64 8, ptr %9) #5
  call void @llvm.lifetime.end.p0(i64 8, ptr %8) #5
  %39 = load ptr, ptr %4, align 8
  ret ptr %39
}