; Function Attrs: nounwind uwtable
define internal ptr @abc_data_new(ptr noundef %0, ptr readnone captures(none) %1, ptr readnone captures(none) %2) #0 {
  %4 = getelementptr inbounds nuw i8, ptr %0, i64 304
  %5 = load ptr, ptr %4, align 8, !tbaa !38
  %6 = tail call ptr %5(ptr noundef %0, i64 noundef 0) #4
  %7 = icmp eq ptr %6, null
  br i1 %7, label %Py_DECREF.exit, label %8

8:                                                ; preds = %3
  %9 = getelementptr i8, ptr %0, i64 888
  %.val = load ptr, ptr %9, align 8, !tbaa !39
  %10 = getelementptr i8, ptr %.val, i64 32
  %.val.val = load ptr, ptr %10, align 8, !tbaa !4
  %11 = icmp eq ptr %.val.val, null
  br i1 %11, label %12, label %18

12:                                               ; preds = %8
  %13 = load i32, ptr %6, align 8, !tbaa !17
  %.not.i = icmp sgt i32 %13, -1
  br i1 %.not.i, label %14, label %Py_DECREF.exit

14:                                               ; preds = %12
  %15 = add nsw i32 %13, -1
  store i32 %15, ptr %6, align 8, !tbaa !17
  %16 = icmp eq i32 %15, 0
  br i1 %16, label %17, label %Py_DECREF.exit

17:                                               ; preds = %14
  tail call void @_Py_Dealloc(ptr noundef nonnull %6) #4
  br label %Py_DECREF.exit

18:                                               ; preds = %8
  %19 = getelementptr inbounds nuw i8, ptr %6, i64 16
  %20 = getelementptr i8, ptr %.val.val, i64 8
  tail call void @llvm.memset.p0.i64(ptr noundef nonnull align 8 dereferenceable(24) %19, i8 0, i64 24, i1 false)
  %.val15 = load i64, ptr %20, align 8, !tbaa !18
  %21 = getelementptr inbounds nuw i8, ptr %6, i64 40
  store i64 %.val15, ptr %21, align 8, !tbaa !48
  br label %Py_DECREF.exit

Py_DECREF.exit:                                   ; preds = %17, %14, %12, %3, %18
  %.0 = phi ptr [ %6, %18 ], [ null, %3 ], [ null, %12 ], [ null, %14 ], [ null, %17 ]
  ret ptr %.0
}